target datalayout = "e-m:e-p270:32:32-p271:32:32-p272:64:64-i64:64-i128:128-f80:128-n8:16:32:64-S128"
target triple = "x86_64-pc-linux-gnu"

%struct.jpeg_decompress_struct = type { ptr, ptr, ptr, ptr, i32, i32, ptr, i32, i32, i32, i32, i32, i32, i32, double, i32, i32, i32, i32, i32, i32, i32, i32, i32, i32, i32, i32, i32, i32, i32, i32, i32, i32, ptr, i32, i32, i32, i32, i32, ptr, [4 x ptr], [4 x ptr], [4 x ptr], i32, ptr, i32, i32, [16 x i8], [16 x i8], [16 x i8], i32, i32, i8, i8, i8, i16, i16, i32, i8, i32, ptr, i32, i32, i32, i32, ptr, i32, [4 x ptr], i32, i32, i32, [10 x i32], i32, i32, i32, i32, i32, ptr, ptr, ptr, ptr, ptr, ptr, ptr, ptr, ptr, ptr, ptr }
%struct.jpeg_memory_mgr = type { ptr, ptr, ptr, ptr, ptr, ptr, ptr, ptr, ptr, ptr, ptr, i64, i64 }
%struct.my_cquantizer = type { %struct.jpeg_color_quantizer, ptr, i32, ptr, i32, [4 x i32], i32, [4 x ptr], [4 x ptr], i32 }
%struct.jpeg_color_quantizer = type { ptr, ptr, ptr, ptr }
%struct.jpeg_error_mgr = type { ptr, ptr, ptr, ptr, ptr, i32, %union.anon, i32, i64, ptr, i32, ptr, i32, i32 }
%union.anon = type { [8 x i32], [48 x i8] }

; Function Attrs: nounwind uwtable
define internal ptr @make_odither_array(ptr noundef %0, i32 noundef %1) #0 {
  %3 = alloca ptr, align 8
  %4 = alloca i32, align 4
  %5 = alloca ptr, align 8
  %6 = alloca i32, align 4
  %7 = alloca i32, align 4
  %8 = alloca i32, align 4
  %9 = alloca i32, align 4
  store ptr %0, ptr %3, align 8
  store i32 %1, ptr %4, align 4
  %10 = load ptr, ptr %3, align 8
  %11 = getelementptr inbounds %struct.jpeg_decompress_struct, ptr %10, i32 0, i32 1
  %12 = load ptr, ptr %11, align 8
  %13 = getelementptr inbounds %struct.jpeg_memory_mgr, ptr %12, i32 0, i32 0
  %14 = load ptr, ptr %13, align 8
  %15 = load ptr, ptr %3, align 8
  %16 = call ptr %14(ptr noundef %15, i32 noundef 1, i64 noundef 1024)
  store ptr %16, ptr %5, align 8
  %17 = load i32, ptr %4, align 4
  %18 = sub nsw i32 %17, 1
  %19 = mul nsw i32 512, %18
  store i32 %19, ptr %9, align 4
  store i32 0, ptr %6, align 4
  br label %20

20:                                               ; preds = %64, %2
  %21 = load i32, ptr %6, align 4
  %22 = icmp slt i32 %21, 16
  br i1 %22, label %23, label %67

23:                                               ; preds = %20
  store i32 0, ptr %7, align 4
  br label %24

24:                                               ; preds = %60, %23
  %25 = load i32, ptr %7, align 4
  %26 = icmp slt i32 %25, 16
  br i1 %26, label %27, label %63

27:                                               ; preds = %24
  %28 = load i32, ptr %6, align 4
  %29 = sext i32 %28 to i64
  %30 = getelementptr inbounds [16 x [16 x i8]], ptr @base_dither_matrix, i64 0, i64 %29
  %31 = load i32, ptr %7, align 4
  %32 = sext i32 %31 to i64
  %33 = getelementptr inbounds [16 x i8], ptr %30, i64 0, i64 %32
  %34 = load i8, ptr %33, align 1
  %35 = zext i8 %34 to i32
  %36 = mul nsw i32 2, %35
  %37 = sub nsw i32 255, %36
  %38 = mul nsw i32 %37, 255
  store i32 %38, ptr %8, align 4
  %39 = load i32, ptr %8, align 4
  %40 = icmp slt i32 %39, 0
  br i1 %40, label %41, label %47

41:                                               ; preds = %27
  %42 = load i32, ptr %8, align 4
  %43 = sub nsw i32 0, %42
  %44 = load i32, ptr %9, align 4
  %45 = sdiv i32 %43, %44
  %46 = sub nsw i32 0, %45
  br label %51

47:                                               ; preds = %27
  %48 = load i32, ptr %8, align 4
  %49 = load i32, ptr %9, align 4
  %50 = sdiv i32 %48, %49
  br label %51

51:                                               ; preds = %47, %41
  %52 = phi i32 [ %46, %41 ], [ %50, %47 ]
  %53 = load ptr, ptr %5, align 8
  %54 = load i32, ptr %6, align 4
  %55 = sext i32 %54 to i64
  %56 = getelementptr inbounds [16 x i32], ptr %53, i64 %55
  %57 = load i32, ptr %7, align 4
  %58 = sext i32 %57 to i64
  %59 = getelementptr inbounds [16 x i32], ptr %56, i64 0, i64 %58
  store i32 %52, ptr %59, align 4
  br label %60

60:                                               ; preds = %51
  %61 = load i32, ptr %7, align 4
  %62 = add nsw i32 %61, 1
  store i32 %62, ptr %7, align 4
  br label %24, !llvm.loop !32

63:                                               ; preds = %24
  br label %64

64:                                               ; preds = %63
  %65 = load i32, ptr %6, align 4
  %66 = add nsw i32 %65, 1
  store i32 %66, ptr %6, align 4
  br label %20, !llvm.loop !33

67:                                               ; preds = %20
  %68 = load ptr, ptr %5, align 8
  ret ptr %68
}

; Function Attrs: nounwind uwtable
define internal void @alloc_fs_workspace(ptr noundef %0) #0 {
  %2 = alloca ptr, align 8
  %3 = alloca ptr, align 8
  %4 = alloca i64, align 8
  %5 = alloca i32, align 4
  store ptr %0, ptr %2, align 8
  %6 = load ptr, ptr %2, align 8
  %7 = getelementptr inbounds %struct.jpeg_decompress_struct, ptr %6, i32 0, i32 87
  %8 = load ptr, ptr %7, align 8
  store ptr %8, ptr %3, align 8
  %9 = load ptr, ptr %2, align 8
  %10 = getelementptr inbounds %struct.jpeg_decompress_struct, ptr %9, i32 0, i32 27
  %11 = load i32, ptr %10, align 8
  %12 = add i32 %11, 2
  %13 = zext i32 %12 to i64
  %14 = mul i64 %13, 2
  store i64 %14, ptr %4, align 8
  store i32 0, ptr %5, align 4
  br label %15

15:                                               ; preds = %35, %1
  %16 = load i32, ptr %5, align 4
  %17 = load ptr, ptr %2, align 8
  %18 = getelementptr inbounds %struct.jpeg_decompress_struct, ptr %17, i32 0, i32 29
  %19 = load i32, ptr %18, align 8
  %20 = icmp slt i32 %16, %19
  br i1 %20, label %21, label %38

21:                                               ; preds = %15
  %22 = load ptr, ptr %2, align 8
  %23 = getelementptr inbounds %struct.jpeg_decompress_struct, ptr %22, i32 0, i32 1
  %24 = load ptr, ptr %23, align 8
  %25 = getelementptr inbounds %struct.jpeg_memory_mgr, ptr %24, i32 0, i32 1
  %26 = load ptr, ptr %25, align 8
  %27 = load ptr, ptr %2, align 8
  %28 = load i64, ptr %4, align 8
  %29 = call ptr %26(ptr noundef %27, i32 noundef 1, i64 noundef %28)
  %30 = load ptr, ptr %3, align 8
  %31 = getelementptr inbounds %struct.my_cquantizer, ptr %30, i32 0, i32 8
  %32 = load i32, ptr %5, align 4
  %33 = sext i32 %32 to i64
  %34 = getelementptr inbounds [4 x ptr], ptr %31, i64 0, i64 %33
  store ptr %29, ptr %34, align 8
  br label %35

35:                                               ; preds = %21
  %36 = load i32, ptr %5, align 4
  %37 = add nsw i32 %36, 1
  store i32 %37, ptr %5, align 4
  br label %15, !llvm.loop !16

38:                                               ; preds = %15
  ret void
}

; Function Attrs: nounwind uwtable
define internal void @create_odither_tables(ptr noundef %0) #0 {
  %2 = alloca ptr, align 8
  %3 = alloca ptr, align 8
  %4 = alloca ptr, align 8
  %5 = alloca i32, align 4
  %6 = alloca i32, align 4
  %7 = alloca i32, align 4
  store ptr %0, ptr %2, align 8
  %8 = load ptr, ptr %2, align 8
  %9 = getelementptr inbounds %struct.jpeg_decompress_struct, ptr %8, i32 0, i32 87
  %10 = load ptr, ptr %9, align 8
  store ptr %10, ptr %3, align 8
  store i32 0, ptr %5, align 4
  br label %11

11:                                               ; preds = %62, %1
  %12 = load i32, ptr %5, align 4
  %13 = load ptr, ptr %2, align 8
  %14 = getelementptr inbounds %struct.jpeg_decompress_struct, ptr %13, i32 0, i32 29
  %15 = load i32, ptr %14, align 8
  %16 = icmp slt i32 %12, %15
  br i1 %16, label %17, label %65

17:                                               ; preds = %11
  %18 = load ptr, ptr %3, align 8
  %19 = getelementptr inbounds %struct.my_cquantizer, ptr %18, i32 0, i32 5
  %20 = load i32, ptr %5, align 4
  %21 = sext i32 %20 to i64
  %22 = getelementptr inbounds [4 x i32], ptr %19, i64 0, i64 %21
  %23 = load i32, ptr %22, align 4
  store i32 %23, ptr %7, align 4
  store ptr null, ptr %4, align 8
  store i32 0, ptr %6, align 4
  br label %24

24:                                               ; preds = %45, %17
  %25 = load i32, ptr %6, align 4
  %26 = load i32, ptr %5, align 4
  %27 = icmp slt i32 %25, %26
  br i1 %27, label %28, label %48

28:                                               ; preds = %24
  %29 = load i32, ptr %7, align 4
  %30 = load ptr, ptr %3, align 8
  %31 = getelementptr inbounds %struct.my_cquantizer, ptr %30, i32 0, i32 5
  %32 = load i32, ptr %6, align 4
  %33 = sext i32 %32 to i64
  %34 = getelementptr inbounds [4 x i32], ptr %31, i64 0, i64 %33
  %35 = load i32, ptr %34, align 4
  %36 = icmp eq i32 %29, %35
  br i1 %36, label %37, label %44

37:                                               ; preds = %28
  %38 = load ptr, ptr %3, align 8
  %39 = getelementptr inbounds %struct.my_cquantizer, ptr %38, i32 0, i32 7
  %40 = load i32, ptr %6, align 4
  %41 = sext i32 %40 to i64
  %42 = getelementptr inbounds [4 x ptr], ptr %39, i64 0, i64 %41
  %43 = load ptr, ptr %42, align 8
  store ptr %43, ptr %4, align 8
  br label %48

44:                                               ; preds = %28
  br label %45

45:                                               ; preds = %44
  %46 = load i32, ptr %6, align 4
  %47 = add nsw i32 %46, 1
  store i32 %47, ptr %6, align 4
  br label %24, !llvm.loop !27

48:                                               ; preds = %37, %24
  %49 = load ptr, ptr %4, align 8
  %50 = icmp eq ptr %49, null
  br i1 %50, label %51, label %55

51:                                               ; preds = %48
  %52 = load ptr, ptr %2, align 8
  %53 = load i32, ptr %7, align 4
  %54 = call ptr @make_odither_array(ptr noundef %52, i32 noundef %53)
  store ptr %54, ptr %4, align 8
  br label %55

55:                                               ; preds = %51, %48
  %56 = load ptr, ptr %4, align 8
  %57 = load ptr, ptr %3, align 8
  %58 = getelementptr inbounds %struct.my_cquantizer, ptr %57, i32 0, i32 7
  %59 = load i32, ptr %5, align 4
  %60 = sext i32 %59 to i64
  %61 = getelementptr inbounds [4 x ptr], ptr %58, i64 0, i64 %60
  store ptr %56, ptr %61, align 8
  br label %62

62:                                               ; preds = %55
  %63 = load i32, ptr %5, align 4
  %64 = add nsw i32 %63, 1
  store i32 %64, ptr %5, align 4
  br label %11, !llvm.loop !28

65:                                               ; preds = %11
  ret void
}

; Function Attrs: nounwind uwtable
define internal void @start_pass_1_quant(ptr noundef %0, i32 noundef %1) #0 {
  %3 = alloca ptr, align 8
  %4 = alloca i32, align 4
  %5 = alloca ptr, align 8
  %6 = alloca i64, align 8
  %7 = alloca i32, align 4
  store ptr %0, ptr %3, align 8
  store i32 %1, ptr %4, align 4
  %8 = load ptr, ptr %3, align 8
  %9 = getelementptr inbounds %struct.jpeg_decompress_struct, ptr %8, i32 0, i32 87
  %10 = load ptr, ptr %9, align 8
  store ptr %10, ptr %5, align 8
  %11 = load ptr, ptr %5, align 8
  %12 = getelementptr inbounds %struct.my_cquantizer, ptr %11, i32 0, i32 1
  %13 = load ptr, ptr %12, align 8
  %14 = load ptr, ptr %3, align 8
  %15 = getelementptr inbounds %struct.jpeg_decompress_struct, ptr %14, i32 0, i32 33
  store ptr %13, ptr %15, align 8
  %16 = load ptr, ptr %5, align 8
  %17 = getelementptr inbounds %struct.my_cquantizer, ptr %16, i32 0, i32 2
  %18 = load i32, ptr %17, align 8
  %19 = load ptr, ptr %3, align 8
  %20 = getelementptr inbounds %struct.jpeg_decompress_struct, ptr %19, i32 0, i32 32
  store i32 %18, ptr %20, align 4
  %21 = load ptr, ptr %3, align 8
  %22 = getelementptr inbounds %struct.jpeg_decompress_struct, ptr %21, i32 0, i32 21
  %23 = load i32, ptr %22, align 8
  switch i32 %23, label %107 [
    i32 0, label %24
    i32 1, label %38
    i32 2, label %69
  ]

24:                                               ; preds = %2
  %25 = load ptr, ptr %3, align 8
  %26 = getelementptr inbounds %struct.jpeg_decompress_struct, ptr %25, i32 0, i32 29
  %27 = load i32, ptr %26, align 8
  %28 = icmp eq i32 %27, 3
  br i1 %28, label %29, label %33

29:                                               ; preds = %24
  %30 = load ptr, ptr %5, align 8
  %31 = getelementptr inbounds %struct.my_cquantizer, ptr %30, i32 0, i32 0
  %32 = getelementptr inbounds %struct.jpeg_color_quantizer, ptr %31, i32 0, i32 1
  store ptr @color_quantize3, ptr %32, align 8
  br label %37

33:                                               ; preds = %24
  %34 = load ptr, ptr %5, align 8
  %35 = getelementptr inbounds %struct.my_cquantizer, ptr %34, i32 0, i32 0
  %36 = getelementptr inbounds %struct.jpeg_color_quantizer, ptr %35, i32 0, i32 1
  store ptr @color_quantize, ptr %36, align 8
  br label %37

37:                                               ; preds = %33, %29
  br label %118

38:                                               ; preds = %2
  %39 = load ptr, ptr %3, align 8
  %40 = getelementptr inbounds %struct.jpeg_decompress_struct, ptr %39, i32 0, i32 29
  %41 = load i32, ptr %40, align 8
  %42 = icmp eq i32 %41, 3
  br i1 %42, label %43, label %47

43:                                               ; preds = %38
  %44 = load ptr, ptr %5, align 8
  %45 = getelementptr inbounds %struct.my_cquantizer, ptr %44, i32 0, i32 0
  %46 = getelementptr inbounds %struct.jpeg_color_quantizer, ptr %45, i32 0, i32 1
  store ptr @quantize3_ord_dither, ptr %46, align 8
  br label %51

47:                                               ; preds = %38
  %48 = load ptr, ptr %5, align 8
  %49 = getelementptr inbounds %struct.my_cquantizer, ptr %48, i32 0, i32 0
  %50 = getelementptr inbounds %struct.jpeg_color_quantizer, ptr %49, i32 0, i32 1
  store ptr @quantize_ord_dither, ptr %50, align 8
  br label %51

51:                                               ; preds = %47, %43
  %52 = load ptr, ptr %5, align 8
  %53 = getelementptr inbounds %struct.my_cquantizer, ptr %52, i32 0, i32 6
  store i32 0, ptr %53, align 4
  %54 = load ptr, ptr %5, align 8
  %55 = getelementptr inbounds %struct.my_cquantizer, ptr %54, i32 0, i32 4
  %56 = load i32, ptr %55, align 8
  %57 = icmp ne i32 %56, 0
  br i1 %57, label %60, label %58

58:                                               ; preds = %51
  %59 = load ptr, ptr %3, align 8
  call void @create_colorindex(ptr noundef %59)
  br label %60

60:                                               ; preds = %58, %51
  %61 = load ptr, ptr %5, align 8
  %62 = getelementptr inbounds %struct.my_cquantizer, ptr %61, i32 0, i32 7
  %63 = getelementptr inbounds [4 x ptr], ptr %62, i64 0, i64 0
  %64 = load ptr, ptr %63, align 8
  %65 = icmp eq ptr %64, null
  br i1 %65, label %66, label %68

66:                                               ; preds = %60
  %67 = load ptr, ptr %3, align 8
  call void @create_odither_tables(ptr noundef %67)
  br label %68

68:                                               ; preds = %66, %60
  br label %118

69:                                               ; preds = %2
  %70 = load ptr, ptr %5, align 8
  %71 = getelementptr inbounds %struct.my_cquantizer, ptr %70, i32 0, i32 0
  %72 = getelementptr inbounds %struct.jpeg_color_quantizer, ptr %71, i32 0, i32 1
  store ptr @quantize_fs_dither, ptr %72, align 8
  %73 = load ptr, ptr %5, align 8
  %74 = getelementptr inbounds %struct.my_cquantizer, ptr %73, i32 0, i32 9
  store i32 0, ptr %74, align 8
  %75 = load ptr, ptr %5, align 8
  %76 = getelementptr inbounds %struct.my_cquantizer, ptr %75, i32 0, i32 8
  %77 = getelementptr inbounds [4 x ptr], ptr %76, i64 0, i64 0
  %78 = load ptr, ptr %77, align 8
  %79 = icmp eq ptr %78, null
  br i1 %79, label %80, label %82

80:                                               ; preds = %69
  %81 = load ptr, ptr %3, align 8
  call void @alloc_fs_workspace(ptr noundef %81)
  br label %82

82:                                               ; preds = %80, %69
  %83 = load ptr, ptr %3, align 8
  %84 = getelementptr inbounds %struct.jpeg_decompress_struct, ptr %83, i32 0, i32 27
  %85 = load i32, ptr %84, align 8
  %86 = add i32 %85, 2
  %87 = zext i32 %86 to i64
  %88 = mul i64 %87, 2
  store i64 %88, ptr %6, align 8
  store i32 0, ptr %7, align 4
  br label %89

89:                                               ; preds = %103, %82
  %90 = load i32, ptr %7, align 4
  %91 = load ptr, ptr %3, align 8
  %92 = getelementptr inbounds %struct.jpeg_decompress_struct, ptr %91, i32 0, i32 29
  %93 = load i32, ptr %92, align 8
  %94 = icmp slt i32 %90, %93
  br i1 %94, label %95, label %106

95:                                               ; preds = %89
  %96 = load ptr, ptr %5, align 8
  %97 = getelementptr inbounds %struct.my_cquantizer, ptr %96, i32 0, i32 8
  %98 = load i32, ptr %7, align 4
  %99 = sext i32 %98 to i64
  %100 = getelementptr inbounds [4 x ptr], ptr %97, i64 0, i64 %99
  %101 = load ptr, ptr %100, align 8
  %102 = load i64, ptr %6, align 8
  call void @jZeroFar(ptr noundef %101, i64 noundef %102)
  br label %103

103:                                              ; preds = %95
  %104 = load i32, ptr %7, align 4
  %105 = add nsw i32 %104, 1
  store i32 %105, ptr %7, align 4
  br label %89, !llvm.loop !6

106:                                              ; preds = %89
  br label %118

107:                                              ; preds = %2
  %108 = load ptr, ptr %3, align 8
  %109 = getelementptr inbounds %struct.jpeg_decompress_struct, ptr %108, i32 0, i32 0
  %110 = load ptr, ptr %109, align 8
  %111 = getelementptr inbounds %struct.jpeg_error_mgr, ptr %110, i32 0, i32 5
  store i32 48, ptr %111, align 8
  %112 = load ptr, ptr %3, align 8
  %113 = getelementptr inbounds %struct.jpeg_decompress_struct, ptr %112, i32 0, i32 0
  %114 = load ptr, ptr %113, align 8
  %115 = getelementptr inbounds %struct.jpeg_error_mgr, ptr %114, i32 0, i32 0
  %116 = load ptr, ptr %115, align 8
  %117 = load ptr, ptr %3, align 8
  call void %116(ptr noundef %117)
  br label %118

118:                                              ; preds = %107, %106, %68, %37
  ret void
}