; Function Attrs: nounwind uwtable
define internal void @start_pass_1_quant(ptr noundef %0, i32 %1) #0 {
  %3 = getelementptr inbounds i8, ptr %0, i64 624
  %4 = load ptr, ptr %3, align 8
  %5 = getelementptr inbounds i8, ptr %4, i64 32
  %6 = load ptr, ptr %5, align 8
  %7 = getelementptr inbounds i8, ptr %0, i64 160
  store ptr %6, ptr %7, align 8
  %8 = getelementptr inbounds i8, ptr %4, i64 40
  %9 = load i32, ptr %8, align 8
  %10 = getelementptr inbounds i8, ptr %0, i64 156
  store i32 %9, ptr %10, align 4
  %11 = getelementptr inbounds i8, ptr %0, i64 112
  %12 = load i32, ptr %11, align 8
  switch i32 %12, label %110 [
    i32 0, label %13
    i32 1, label %20
    i32 2, label %70
  ]

13:                                               ; preds = %2
  %14 = getelementptr inbounds i8, ptr %0, i64 144
  %15 = load i32, ptr %14, align 8
  %16 = icmp eq i32 %15, 3
  %17 = getelementptr inbounds i8, ptr %4, i64 8
  br i1 %16, label %18, label %19

18:                                               ; preds = %13
  store ptr @color_quantize3, ptr %17, align 8
  br label %create_odither_tables.exit

19:                                               ; preds = %13
  store ptr @color_quantize, ptr %17, align 8
  br label %create_odither_tables.exit

20:                                               ; preds = %2
  %21 = getelementptr inbounds i8, ptr %0, i64 144
  %22 = load i32, ptr %21, align 8
  %23 = icmp eq i32 %22, 3
  %spec.select = select i1 %23, ptr @quantize3_ord_dither, ptr @quantize_ord_dither
  %24 = getelementptr inbounds i8, ptr %4, i64 8
  store ptr %spec.select, ptr %24, align 8
  %25 = getelementptr inbounds i8, ptr %4, i64 76
  store i32 0, ptr %25, align 4
  %26 = getelementptr inbounds i8, ptr %4, i64 56
  %27 = load i32, ptr %26, align 8
  %.not = icmp eq i32 %27, 0
  br i1 %.not, label %28, label %29

28:                                               ; preds = %20
  tail call fastcc void @create_colorindex(ptr noundef nonnull %0)
  br label %29

29:                                               ; preds = %28, %20
  %30 = getelementptr inbounds i8, ptr %4, i64 80
  %31 = load ptr, ptr %30, align 8
  %32 = icmp eq ptr %31, null
  br i1 %32, label %33, label %create_odither_tables.exit

33:                                               ; preds = %29
  %34 = load i32, ptr %21, align 8
  %35 = icmp sgt i32 %34, 0
  br i1 %35, label %.lr.ph26.i, label %create_odither_tables.exit

.lr.ph26.i:                                       ; preds = %33
  %36 = load ptr, ptr %3, align 8
  %37 = getelementptr inbounds i8, ptr %36, i64 60
  %38 = getelementptr inbounds i8, ptr %36, i64 80
  %39 = getelementptr inbounds i8, ptr %0, i64 8
  br label %40

40:                                               ; preds = %make_odither_array.exit.i, %.lr.ph26.i
  %indvars.iv29.i = phi i64 [ 0, %.lr.ph26.i ], [ %indvars.iv.next30.i, %make_odither_array.exit.i ]
  %41 = getelementptr inbounds [4 x i32], ptr %37, i64 0, i64 %indvars.iv29.i
  %42 = load i32, ptr %41, align 4
  %.not.i = icmp eq i64 %indvars.iv29.i, 0
  br i1 %.not.i, label %.thread.i, label %.lr.ph.i

43:                                               ; preds = %.lr.ph.i
  %indvars.iv.next.i = add nuw nsw i64 %indvars.iv.i, 1
  %exitcond.not.i = icmp eq i64 %indvars.iv.next.i, %indvars.iv29.i
  br i1 %exitcond.not.i, label %.thread.i, label %.lr.ph.i, !llvm.loop !16

.lr.ph.i:                                         ; preds = %40, %43
  %indvars.iv.i = phi i64 [ %indvars.iv.next.i, %43 ], [ 0, %40 ]
  %44 = getelementptr inbounds [4 x i32], ptr %37, i64 0, i64 %indvars.iv.i
  %45 = load i32, ptr %44, align 4
  %46 = icmp eq i32 %42, %45
  br i1 %46, label %47, label %43

47:                                               ; preds = %.lr.ph.i
  %48 = getelementptr inbounds [4 x ptr], ptr %38, i64 0, i64 %indvars.iv.i
  %49 = load ptr, ptr %48, align 8
  %50 = icmp eq ptr %49, null
  br i1 %50, label %.thread.i, label %make_odither_array.exit.i

.thread.i:                                        ; preds = %43, %47, %40
  %51 = load ptr, ptr %39, align 8
  %52 = load ptr, ptr %51, align 8
  %53 = tail call ptr %52(ptr noundef %0, i32 noundef 1, i64 noundef 1024) #6
  %54 = shl i32 %42, 9
  %55 = add i32 %54, -512
  br label %.preheader.i.i

.preheader.i.i:                                   ; preds = %65, %.thread.i
  %indvars.iv22.i.i = phi i64 [ 0, %.thread.i ], [ %indvars.iv.next23.i.i, %65 ]
  br label %56

56:                                               ; preds = %56, %.preheader.i.i
  %indvars.iv.i.i = phi i64 [ 0, %.preheader.i.i ], [ %indvars.iv.next.i.i, %56 ]
  %57 = getelementptr inbounds [16 x [16 x i8]], ptr @base_dither_matrix, i64 0, i64 %indvars.iv22.i.i, i64 %indvars.iv.i.i
  %58 = load i8, ptr %57, align 1
  %59 = zext i8 %58 to i32
  %60 = shl nuw nsw i32 %59, 1
  %61 = sub nsw i32 255, %60
  %62 = mul nsw i32 %61, 255
  %63 = sdiv i32 %62, %55
  %64 = getelementptr inbounds [16 x i32], ptr %53, i64 %indvars.iv22.i.i, i64 %indvars.iv.i.i
  store i32 %63, ptr %64, align 4
  %indvars.iv.next.i.i = add nuw nsw i64 %indvars.iv.i.i, 1
  %exitcond.not.i.i = icmp eq i64 %indvars.iv.next.i.i, 16
  br i1 %exitcond.not.i.i, label %65, label %56, !llvm.loop !17

65:                                               ; preds = %56
  %indvars.iv.next23.i.i = add nuw nsw i64 %indvars.iv22.i.i, 1
  %exitcond25.not.i.i = icmp eq i64 %indvars.iv.next23.i.i, 16
  br i1 %exitcond25.not.i.i, label %make_odither_array.exit.i, label %.preheader.i.i, !llvm.loop !18

make_odither_array.exit.i:                        ; preds = %65, %47
  %.1.i = phi ptr [ %49, %47 ], [ %53, %65 ]
  %66 = getelementptr inbounds [4 x ptr], ptr %38, i64 0, i64 %indvars.iv29.i
  store ptr %.1.i, ptr %66, align 8
  %indvars.iv.next30.i = add nuw nsw i64 %indvars.iv29.i, 1
  %67 = load i32, ptr %21, align 8
  %68 = sext i32 %67 to i64
  %69 = icmp slt i64 %indvars.iv.next30.i, %68
  br i1 %69, label %40, label %create_odither_tables.exit, !llvm.loop !19

70:                                               ; preds = %2
  %71 = getelementptr inbounds i8, ptr %4, i64 8
  store ptr @quantize_fs_dither, ptr %71, align 8
  %72 = getelementptr inbounds i8, ptr %4, i64 144
  store i32 0, ptr %72, align 8
  %73 = getelementptr inbounds i8, ptr %4, i64 112
  %74 = load ptr, ptr %73, align 8
  %75 = icmp eq ptr %74, null
  br i1 %75, label %76, label %.alloc_fs_workspace.exit_crit_edge

.alloc_fs_workspace.exit_crit_edge:               ; preds = %70
  %.phi.trans.insert = getelementptr inbounds i8, ptr %0, i64 144
  %.pre = load i32, ptr %.phi.trans.insert, align 8
  br label %alloc_fs_workspace.exit

76:                                               ; preds = %70
  %77 = getelementptr inbounds i8, ptr %0, i64 136
  %78 = load i32, ptr %77, align 8
  %79 = add i32 %78, 2
  %80 = zext i32 %79 to i64
  %81 = shl nuw nsw i64 %80, 1
  %82 = getelementptr inbounds i8, ptr %0, i64 144
  %83 = load i32, ptr %82, align 8
  %84 = icmp sgt i32 %83, 0
  br i1 %84, label %.lr.ph.i30, label %create_odither_tables.exit

.lr.ph.i30:                                       ; preds = %76
  %85 = load ptr, ptr %3, align 8
  %86 = getelementptr inbounds i8, ptr %0, i64 8
  %87 = getelementptr inbounds i8, ptr %85, i64 112
  br label %88

88:                                               ; preds = %88, %.lr.ph.i30
  %indvars.iv.i31 = phi i64 [ 0, %.lr.ph.i30 ], [ %indvars.iv.next.i32, %88 ]
  %89 = load ptr, ptr %86, align 8
  %90 = getelementptr inbounds i8, ptr %89, i64 8
  %91 = load ptr, ptr %90, align 8
  %92 = tail call ptr %91(ptr noundef nonnull %0, i32 noundef 1, i64 noundef %81) #6
  %93 = getelementptr inbounds [4 x ptr], ptr %87, i64 0, i64 %indvars.iv.i31
  store ptr %92, ptr %93, align 8
  %indvars.iv.next.i32 = add nuw nsw i64 %indvars.iv.i31, 1
  %94 = load i32, ptr %82, align 8
  %95 = sext i32 %94 to i64
  %96 = icmp slt i64 %indvars.iv.next.i32, %95
  br i1 %96, label %88, label %alloc_fs_workspace.exit, !llvm.loop !15

alloc_fs_workspace.exit:                          ; preds = %88, %.alloc_fs_workspace.exit_crit_edge
  %97 = phi i32 [ %.pre, %.alloc_fs_workspace.exit_crit_edge ], [ %94, %88 ]
  %98 = getelementptr inbounds i8, ptr %0, i64 136
  %99 = load i32, ptr %98, align 8
  %100 = add i32 %99, 2
  %101 = zext i32 %100 to i64
  %102 = shl nuw nsw i64 %101, 1
  %103 = getelementptr inbounds i8, ptr %0, i64 144
  %104 = icmp sgt i32 %97, 0
  br i1 %104, label %.lr.ph, label %create_odither_tables.exit

.lr.ph:                                           ; preds = %alloc_fs_workspace.exit, %.lr.ph
  %indvars.iv = phi i64 [ %indvars.iv.next, %.lr.ph ], [ 0, %alloc_fs_workspace.exit ]
  %105 = getelementptr inbounds [4 x ptr], ptr %73, i64 0, i64 %indvars.iv
  %106 = load ptr, ptr %105, align 8
  tail call void @jZeroFar(ptr noundef %106, i64 noundef %102) #6
  %indvars.iv.next = add nuw nsw i64 %indvars.iv, 1
  %107 = load i32, ptr %103, align 8
  %108 = sext i32 %107 to i64
  %109 = icmp slt i64 %indvars.iv.next, %108
  br i1 %109, label %.lr.ph, label %create_odither_tables.exit, !llvm.loop !20

110:                                              ; preds = %2
  %111 = load ptr, ptr %0, align 8
  %112 = getelementptr inbounds i8, ptr %111, i64 40
  store i32 48, ptr %112, align 8
  %113 = load ptr, ptr %0, align 8
  %114 = load ptr, ptr %113, align 8
  tail call void %114(ptr noundef nonnull %0) #6
  br label %create_odither_tables.exit

create_odither_tables.exit:                       ; preds = %.lr.ph, %make_odither_array.exit.i, %76, %alloc_fs_workspace.exit, %33, %29, %18, %19, %110
  ret void
}